target datalayout = "e-m:e-p270:32:32-p271:32:32-p272:64:64-i64:64-i128:128-f80:128-n8:16:32:64-S128"
target triple = "x86_64-pc-linux-gnu"

%"class.gmx::AbstractAnalysisArrayData" = type <{ %"class.gmx::AbstractAnalysisData", i32, %"class.gmx::AnalysisDataPointSetInfo", [4 x i8], %"class.std::vector", %"class.std::vector.5", float, i8, i8, [2 x i8] }>
%"class.gmx::AbstractAnalysisData" = type { ptr, %"class.std::unique_ptr" }
%"class.std::unique_ptr" = type { %"struct.std::__uniq_ptr_data" }
%"struct.std::__uniq_ptr_data" = type { %"class.std::__uniq_ptr_impl" }
%"class.std::__uniq_ptr_impl" = type { %"class.std::tuple" }
%"class.std::tuple" = type { %"struct.std::_Tuple_impl" }
%"struct.std::_Tuple_impl" = type { %"struct.std::_Head_base.4" }
%"struct.std::_Head_base.4" = type { ptr }
%"class.gmx::AnalysisDataPointSetInfo" = type { i32, i32, i32, i32 }
%"class.std::vector" = type { %"struct.std::_Vector_base" }
%"struct.std::_Vector_base" = type { %"struct.std::_Vector_base<gmx::AnalysisDataValue, std::allocator<gmx::AnalysisDataValue>>::_Vector_impl" }
%"struct.std::_Vector_base<gmx::AnalysisDataValue, std::allocator<gmx::AnalysisDataValue>>::_Vector_impl" = type { %"struct.std::_Vector_base<gmx::AnalysisDataValue, std::allocator<gmx::AnalysisDataValue>>::_Vector_impl_data" }
%"struct.std::_Vector_base<gmx::AnalysisDataValue, std::allocator<gmx::AnalysisDataValue>>::_Vector_impl_data" = type { ptr, ptr, ptr }
%"class.std::vector.5" = type { %"struct.std::_Vector_base.6" }
%"struct.std::_Vector_base.6" = type { %"struct.std::_Vector_base<float, std::allocator<float>>::_Vector_impl" }
%"struct.std::_Vector_base<float, std::allocator<float>>::_Vector_impl" = type { %"struct.std::_Vector_base<float, std::allocator<float>>::_Vector_impl_data" }
%"struct.std::_Vector_base<float, std::allocator<float>>::_Vector_impl_data" = type { ptr, ptr, ptr }
%class.anon.23 = type { i8 }

@.str.3 = private unnamed_addr constant [132 x i8] c"generated/home/dtcxzyw/WorkSpace/Projects/compilers/llvm-opt-benchmark/bench/gromacs/gromacs/src/gromacs/analysisdata/arraydata.cpp\00", align 1
@.str.13 = private unnamed_addr constant [9 x i8] c"!bReady_\00", align 1
@.str.14 = private unnamed_addr constant [44 x i8] c"X axis cannot be set after data is finished\00", align 1
@"__PRETTY_FUNCTION__._ZZN3gmx25AbstractAnalysisArrayData8setXAxisEffENK3$_0clEv" = private unnamed_addr constant [97 x i8] c"auto gmx::AbstractAnalysisArrayData::setXAxis(real, real)::(anonymous class)::operator()() const\00", align 1

; Function Attrs: mustprogress nounwind uwtable
define linkonce_odr noundef nonnull align 4 dereferenceable(4) ptr @_ZNSt6vectorIfSaIfEEixEm(ptr noundef nonnull align 8 dereferenceable(24) %0, i64 noundef %1) #0 comdat align 2 {
  %3 = alloca ptr, align 8
  %4 = alloca i64, align 8
  store ptr %0, ptr %3, align 8
  store i64 %1, ptr %4, align 8
  %5 = load ptr, ptr %3, align 8
  %6 = getelementptr inbounds %"struct.std::_Vector_base.6", ptr %5, i32 0, i32 0
  %7 = getelementptr inbounds %"struct.std::_Vector_base<float, std::allocator<float>>::_Vector_impl_data", ptr %6, i32 0, i32 0
  %8 = load ptr, ptr %7, align 8
  %9 = load i64, ptr %4, align 8
  %10 = getelementptr inbounds float, ptr %8, i64 %9
  ret ptr %10
}

; Function Attrs: mustprogress uwtable
define internal void @"_ZZN3gmx25AbstractAnalysisArrayData8setXAxisEffENK3$_0clEv"(ptr noundef nonnull align 1 dereferenceable(1) %0) #1 align 2 {
  %2 = alloca ptr, align 8
  store ptr %0, ptr %2, align 8
  call void @_ZN3gmx8internal13assertHandlerEPKcS2_S2_S2_i(ptr noundef @.str.13, ptr noundef @.str.14, ptr noundef @"__PRETTY_FUNCTION__._ZZN3gmx25AbstractAnalysisArrayData8setXAxisEffENK3$_0clEv", ptr noundef @.str.3, i32 noundef 124) #14
  unreachable
}

; Function Attrs: mustprogress uwtable
define void @_ZN3gmx25AbstractAnalysisArrayData8setXAxisEff(ptr noundef nonnull align 8 dereferenceable(94) %0, float noundef %1, float noundef %2) #1 align 2 {
  %4 = alloca ptr, align 8
  %5 = alloca float, align 4
  %6 = alloca float, align 4
  %7 = alloca %class.anon.23, align 1
  %8 = alloca i32, align 4
  store ptr %0, ptr %4, align 8
  store float %1, ptr %5, align 4
  store float %2, ptr %6, align 4
  %9 = load ptr, ptr %4, align 8
  %10 = getelementptr inbounds %"class.gmx::AbstractAnalysisArrayData", ptr %9, i32 0, i32 8
  %11 = load i8, ptr %10, align 1
  %12 = trunc i8 %11 to i1
  br i1 %12, label %14, label %13

13:                                               ; preds = %3
  br label %15

14:                                               ; preds = %3
  call void @"_ZZN3gmx25AbstractAnalysisArrayData8setXAxisEffENK3$_0clEv"(ptr noundef nonnull align 1 dereferenceable(1) %7)
  br label %15

15:                                               ; preds = %14, %13
  %16 = load float, ptr %5, align 4
  %17 = getelementptr inbounds %"class.gmx::AbstractAnalysisArrayData", ptr %9, i32 0, i32 5
  %18 = call noundef nonnull align 4 dereferenceable(4) ptr @_ZNSt6vectorIfSaIfEEixEm(ptr noundef nonnull align 8 dereferenceable(24) %17, i64 noundef 0) #11
  store float %16, ptr %18, align 4
  %19 = load float, ptr %6, align 4
  %20 = getelementptr inbounds %"class.gmx::AbstractAnalysisArrayData", ptr %9, i32 0, i32 6
  store float %19, ptr %20, align 8
  %21 = getelementptr inbounds %"class.gmx::AbstractAnalysisArrayData", ptr %9, i32 0, i32 7
  store i8 1, ptr %21, align 4
  store i32 0, ptr %8, align 4
  br label %22

22:                                               ; preds = %38, %15
  %23 = load i32, ptr %8, align 4
  %24 = getelementptr inbounds %"class.gmx::AbstractAnalysisArrayData", ptr %9, i32 0, i32 1
  %25 = load i32, ptr %24, align 8
  %26 = icmp slt i32 %23, %25
  br i1 %26, label %27, label %41

27:                                               ; preds = %22
  %28 = load float, ptr %5, align 4
  %29 = load i32, ptr %8, align 4
  %30 = sitofp i32 %29 to float
  %31 = getelementptr inbounds %"class.gmx::AbstractAnalysisArrayData", ptr %9, i32 0, i32 6
  %32 = load float, ptr %31, align 8
  %33 = call float @llvm.fmuladd.f32(float %30, float %32, float %28)
  %34 = getelementptr inbounds %"class.gmx::AbstractAnalysisArrayData", ptr %9, i32 0, i32 5
  %35 = load i32, ptr %8, align 4
  %36 = sext i32 %35 to i64
  %37 = call noundef nonnull align 4 dereferenceable(4) ptr @_ZNSt6vectorIfSaIfEEixEm(ptr noundef nonnull align 8 dereferenceable(24) %34, i64 noundef %36) #11
  store float %33, ptr %37, align 4
  br label %38

38:                                               ; preds = %27
  %39 = load i32, ptr %8, align 4
  %40 = add nsw i32 %39, 1
  store i32 %40, ptr %8, align 4
  br label %22, !llvm.loop !11

41:                                               ; preds = %22
  ret void
}