; Function Attrs: mustprogress uwtable
define void @_ZN3gmx25AbstractAnalysisArrayData8setXAxisEff(ptr nocapture noundef nonnull align 8 dereferenceable(94) %0, float noundef %1, float noundef %2) local_unnamed_addr #1 align 2 {
  %4 = getelementptr inbounds i8, ptr %0, i64 93
  %5 = load i8, ptr %4, align 1
  %6 = trunc i8 %5 to i1
  br i1 %6, label %7, label %8

7:                                                ; preds = %3
  tail call void @_ZN3gmx8internal13assertHandlerEPKcS2_S2_S2_i(ptr noundef nonnull @.str.13, ptr noundef nonnull @.str.14, ptr noundef nonnull @"__PRETTY_FUNCTION__._ZZN3gmx25AbstractAnalysisArrayData8setXAxisEffENK3$_0clEv", ptr noundef nonnull @.str.3, i32 noundef 124) #16
  unreachable

8:                                                ; preds = %3
  %9 = getelementptr inbounds i8, ptr %0, i64 64
  %10 = load ptr, ptr %9, align 8
  store float %1, ptr %10, align 4
  %11 = getelementptr inbounds i8, ptr %0, i64 88
  store float %2, ptr %11, align 8
  %12 = getelementptr inbounds i8, ptr %0, i64 92
  store i8 1, ptr %12, align 4
  %13 = getelementptr inbounds i8, ptr %0, i64 16
  %14 = load i32, ptr %13, align 8
  %15 = icmp sgt i32 %14, 0
  br i1 %15, label %.lr.ph, label %._crit_edge

.lr.ph:                                           ; preds = %8, %.lr.ph
  %indvars.iv = phi i64 [ %indvars.iv.next, %.lr.ph ], [ 0, %8 ]
  %16 = trunc nuw nsw i64 %indvars.iv to i32
  %17 = uitofp nneg i32 %16 to float
  %18 = load float, ptr %11, align 8
  %19 = tail call float @llvm.fmuladd.f32(float %17, float %18, float %1)
  %20 = load ptr, ptr %9, align 8
  %21 = getelementptr inbounds float, ptr %20, i64 %indvars.iv
  store float %19, ptr %21, align 4
  %indvars.iv.next = add nuw nsw i64 %indvars.iv, 1
  %22 = load i32, ptr %13, align 8
  %23 = sext i32 %22 to i64
  %24 = icmp slt i64 %indvars.iv.next, %23
  br i1 %24, label %.lr.ph, label %._crit_edge, !llvm.loop !13

._crit_edge:                                      ; preds = %.lr.ph, %8
  ret void
}